target datalayout = "e-m:e-p270:32:32-p271:32:32-p272:64:64-i64:64-i128:128-f80:128-n8:16:32:64-S128"
target triple = "x86_64-pc-linux-gnu"

%struct.ipmi_parse_typelen = type { ptr, ptr, ptr }
%struct._header_field_info = type { ptr, ptr, i32, i32, ptr, i64, ptr, i32, i32, i32, i32, ptr }
%struct._packet_info = type { ptr, ptr, i32, i32, %struct.nstime_t, %struct.nstime_t, %struct.nstime_t, i8, ptr, ptr, ptr, ptr, %struct._address, %struct._address, %struct._address, %struct._address, %struct._address, %struct._address, i32, ptr, i8, [3 x i8], %struct.anon, i32, i32, i32, i32, ptr, i8, ptr, ptr, i16, i16, i32, i32, i16, i32, i32, ptr, ptr, ptr, i8, i8, i16, i16, i16, i32, i16, i16, ptr, ptr, ptr, ptr, ptr, i32, i32 }
%struct.nstime_t = type { i64, i32 }
%struct._address = type { i32, i32, ptr, ptr }
%struct.anon = type { i8, [3 x i8] }

@ipmi_add_typelen.fru_eng = internal global [4 x ptr] [ptr @ptl_binary, ptr @ptl_bcdplus, ptr @ptl_6bit_ascii, ptr @ptl_8bit_ascii], align 16
@ipmi_add_typelen.fru_noneng = internal global [4 x ptr] [ptr @ptl_binary, ptr @ptl_bcdplus, ptr @ptl_6bit_ascii, ptr @ptl_unicode], align 16
@ipmi_add_typelen.ipmi = internal global [4 x ptr] [ptr @ptl_unicode, ptr @ptl_bcdplus, ptr @ptl_6bit_ascii, ptr @ptl_8bit_ascii], align 16
@fru_langcode_is_english = internal global i8 1, align 1
@.str = private unnamed_addr constant [6 x i8] c"bytes\00", align 1
@.str.1 = private unnamed_addr constant [11 x i8] c"characters\00", align 1
@ett_typelen = internal global i32 0, align 4
@.str.2 = private unnamed_addr constant [31 x i8] c"%s Type/Length byte: %s, %d %s\00", align 1
@.str.3 = private unnamed_addr constant [12 x i8] c"%s (0x%02x)\00", align 1
@.str.4 = private unnamed_addr constant [6 x i8] c"%d %s\00", align 1
@.str.5 = private unnamed_addr constant [10 x i8] c"[%s] '%s'\00", align 1

; Function Attrs: null_pointer_is_valid sspstrong uwtable
define hidden void @ipmi_add_typelen(ptr noundef %0, ptr noundef %1, i32 noundef %2, i32 noundef %3, i32 noundef %4, ptr noundef %5, i32 noundef %6, i1 noundef zeroext %7) #0 {
  %9 = alloca ptr, align 8
  %10 = alloca ptr, align 8
  %11 = alloca i32, align 4
  %12 = alloca i32, align 4
  %13 = alloca i32, align 4
  %14 = alloca ptr, align 8
  %15 = alloca i32, align 4
  %16 = alloca i8, align 1
  %17 = alloca ptr, align 8
  %18 = alloca ptr, align 8
  %19 = alloca i32, align 4
  %20 = alloca i32, align 4
  %21 = alloca i32, align 4
  %22 = alloca i32, align 4
  %23 = alloca i32, align 4
  %24 = alloca ptr, align 8
  %25 = alloca ptr, align 8
  %26 = alloca i8, align 1
  store ptr %0, ptr %9, align 8
  store ptr %1, ptr %10, align 8
  store i32 %2, ptr %11, align 4
  store i32 %3, ptr %12, align 4
  store i32 %4, ptr %13, align 4
  store ptr %5, ptr %14, align 8
  store i32 %6, ptr %15, align 4
  %27 = zext i1 %7 to i8
  store i8 %27, ptr %16, align 1
  call void @llvm.lifetime.start.p0(i64 8, ptr %17) #10
  call void @llvm.lifetime.start.p0(i64 8, ptr %18) #10
  call void @llvm.lifetime.start.p0(i64 4, ptr %19) #10
  call void @llvm.lifetime.start.p0(i64 4, ptr %20) #10
  call void @llvm.lifetime.start.p0(i64 4, ptr %21) #10
  call void @llvm.lifetime.start.p0(i64 4, ptr %22) #10
  call void @llvm.lifetime.start.p0(i64 4, ptr %23) #10
  call void @llvm.lifetime.start.p0(i64 8, ptr %24) #10
  call void @llvm.lifetime.start.p0(i64 8, ptr %25) #10
  call void @llvm.lifetime.start.p0(i64 1, ptr %26) #10
  %28 = load ptr, ptr %14, align 8
  %29 = load i32, ptr %15, align 4
  %30 = call zeroext i8 @tvb_get_uint8(ptr noundef %28, i32 noundef %29)
  store i8 %30, ptr %26, align 1
  %31 = load i8, ptr %26, align 1
  %32 = zext i8 %31 to i32
  %33 = ashr i32 %32, 6
  store i32 %33, ptr %19, align 4
  %34 = load i8, ptr %16, align 1, !range !6, !noundef !7
  %35 = trunc i8 %34 to i1
  br i1 %35, label %36, label %44

36:                                               ; preds = %8
  store i32 63, ptr %20, align 4
  %37 = load i8, ptr @fru_langcode_is_english, align 1, !range !6, !noundef !7
  %38 = trunc i8 %37 to i1
  %39 = select i1 %38, ptr @ipmi_add_typelen.fru_eng, ptr @ipmi_add_typelen.fru_noneng
  %40 = load i32, ptr %19, align 4
  %41 = zext i32 %40 to i64
  %42 = getelementptr ptr, ptr %39, i64 %41
  %43 = load ptr, ptr %42, align 8
  store ptr %43, ptr %17, align 8
  store ptr @.str, ptr %24, align 8
  br label %49

44:                                               ; preds = %8
  store i32 31, ptr %20, align 4
  %45 = load i32, ptr %19, align 4
  %46 = zext i32 %45 to i64
  %47 = getelementptr [4 x ptr], ptr @ipmi_add_typelen.ipmi, i64 0, i64 %46
  %48 = load ptr, ptr %47, align 8
  store ptr %48, ptr %17, align 8
  store ptr @.str.1, ptr %24, align 8
  br label %49

49:                                               ; preds = %44, %36
  %50 = load i8, ptr %26, align 1
  %51 = zext i8 %50 to i32
  %52 = load i32, ptr %20, align 4
  %53 = and i32 %51, %52
  store i32 %53, ptr %23, align 4
  %54 = load ptr, ptr %17, align 8
  %55 = getelementptr inbounds nuw %struct.ipmi_parse_typelen, ptr %54, i32 0, i32 0
  %56 = load ptr, ptr %55, align 8
  %57 = load ptr, ptr %14, align 8
  %58 = load i32, ptr %15, align 4
  %59 = add i32 %58, 1
  %60 = load i32, ptr %23, align 4
  %61 = load i8, ptr %16, align 1, !range !6, !noundef !7
  %62 = trunc i8 %61 to i1
  call void %56(ptr noundef %21, ptr noundef %22, ptr noundef %57, i32 noundef %59, i32 noundef %60, i1 noundef zeroext %62)
  %63 = load ptr, ptr %9, align 8
  %64 = getelementptr inbounds nuw %struct._packet_info, ptr %63, i32 0, i32 51
  %65 = load ptr, ptr %64, align 8
  %66 = load i32, ptr %21, align 4
  %67 = add i32 %66, 1
  %68 = zext i32 %67 to i64
  %69 = call noalias ptr @wmem_alloc(ptr noundef %65, i64 noundef %68) #11
  store ptr %69, ptr %25, align 8
  %70 = load ptr, ptr %17, align 8
  %71 = getelementptr inbounds nuw %struct.ipmi_parse_typelen, ptr %70, i32 0, i32 1
  %72 = load ptr, ptr %71, align 8
  %73 = load ptr, ptr %25, align 8
  %74 = load ptr, ptr %14, align 8
  %75 = load i32, ptr %15, align 4
  %76 = add i32 %75, 1
  %77 = load i32, ptr %21, align 4
  call void %72(ptr noundef %73, ptr noundef %74, i32 noundef %76, i32 noundef %77)
  %78 = load ptr, ptr %25, align 8
  %79 = load i32, ptr %21, align 4
  %80 = zext i32 %79 to i64
  %81 = getelementptr i8, ptr %78, i64 %80
  store i8 0, ptr %81, align 1
  %82 = load ptr, ptr %10, align 8
  %83 = load ptr, ptr %14, align 8
  %84 = load i32, ptr %15, align 4
  %85 = load i32, ptr @ett_typelen, align 4
  %86 = load i32, ptr %11, align 4
  %87 = call ptr @proto_registrar_get_nth(i32 noundef %86)
  %88 = getelementptr inbounds nuw %struct._header_field_info, ptr %87, i32 0, i32 0
  %89 = load ptr, ptr %88, align 8
  %90 = load ptr, ptr %17, align 8
  %91 = getelementptr inbounds nuw %struct.ipmi_parse_typelen, ptr %90, i32 0, i32 2
  %92 = load ptr, ptr %91, align 8
  %93 = load i32, ptr %23, align 4
  %94 = load ptr, ptr %24, align 8
  %95 = call ptr (ptr, ptr, i32, i32, i32, ptr, ptr, ...) @proto_tree_add_subtree_format(ptr noundef %82, ptr noundef %83, i32 noundef %84, i32 noundef 1, i32 noundef %85, ptr noundef null, ptr noundef @.str.2, ptr noundef %89, ptr noundef %92, i32 noundef %93, ptr noundef %94)
  store ptr %95, ptr %18, align 8
  %96 = load ptr, ptr %18, align 8
  %97 = load i32, ptr %12, align 4
  %98 = load ptr, ptr %14, align 8
  %99 = load i32, ptr %15, align 4
  %100 = load i32, ptr %19, align 4
  %101 = load ptr, ptr %17, align 8
  %102 = getelementptr inbounds nuw %struct.ipmi_parse_typelen, ptr %101, i32 0, i32 2
  %103 = load ptr, ptr %102, align 8
  %104 = load i32, ptr %19, align 4
  %105 = call ptr (ptr, i32, ptr, i32, i32, i32, ptr, ...) @proto_tree_add_uint_format_value(ptr noundef %96, i32 noundef %97, ptr noundef %98, i32 noundef %99, i32 noundef 1, i32 noundef %100, ptr noundef @.str.3, ptr noundef %103, i32 noundef %104)
  %106 = load ptr, ptr %18, align 8
  %107 = load i32, ptr %13, align 4
  %108 = load ptr, ptr %14, align 8
  %109 = load i32, ptr %15, align 4
  %110 = load i32, ptr %23, align 4
  %111 = load i32, ptr %23, align 4
  %112 = load ptr, ptr %24, align 8
  %113 = call ptr (ptr, i32, ptr, i32, i32, i32, ptr, ...) @proto_tree_add_uint_format_value(ptr noundef %106, i32 noundef %107, ptr noundef %108, i32 noundef %109, i32 noundef 1, i32 noundef %110, ptr noundef @.str.4, i32 noundef %111, ptr noundef %112)
  %114 = load ptr, ptr %10, align 8
  %115 = load i32, ptr %11, align 4
  %116 = load ptr, ptr %14, align 8
  %117 = load i32, ptr %15, align 4
  %118 = add i32 %117, 1
  %119 = load i32, ptr %22, align 4
  %120 = load ptr, ptr %25, align 8
  %121 = load ptr, ptr %17, align 8
  %122 = getelementptr inbounds nuw %struct.ipmi_parse_typelen, ptr %121, i32 0, i32 2
  %123 = load ptr, ptr %122, align 8
  %124 = load ptr, ptr %25, align 8
  %125 = call ptr (ptr, i32, ptr, i32, i32, ptr, ptr, ...) @proto_tree_add_string_format_value(ptr noundef %114, i32 noundef %115, ptr noundef %116, i32 noundef %118, i32 noundef %119, ptr noundef %120, ptr noundef @.str.5, ptr noundef %123, ptr noundef %124)
  call void @llvm.lifetime.end.p0(i64 1, ptr %26) #10
  call void @llvm.lifetime.end.p0(i64 8, ptr %25) #10
  call void @llvm.lifetime.end.p0(i64 8, ptr %24) #10
  call void @llvm.lifetime.end.p0(i64 4, ptr %23) #10
  call void @llvm.lifetime.end.p0(i64 4, ptr %22) #10
  call void @llvm.lifetime.end.p0(i64 4, ptr %21) #10
  call void @llvm.lifetime.end.p0(i64 4, ptr %20) #10
  call void @llvm.lifetime.end.p0(i64 4, ptr %19) #10
  call void @llvm.lifetime.end.p0(i64 8, ptr %18) #10
  call void @llvm.lifetime.end.p0(i64 8, ptr %17) #10
  ret void
}