; Function Attrs: null_pointer_is_valid sspstrong uwtable
define hidden void @ipmi_add_typelen(ptr noundef readonly captures(none) %0, ptr noundef %1, i32 noundef %2, i32 noundef %3, i32 noundef %4, ptr noundef %5, i32 noundef %6, i1 noundef zeroext %7) local_unnamed_addr #0 {
  %9 = alloca i32, align 4
  %10 = alloca i32, align 4
  call void @llvm.lifetime.start.p0(i64 4, ptr nonnull %9) #15
  call void @llvm.lifetime.start.p0(i64 4, ptr nonnull %10) #15
  %11 = tail call zeroext i8 @tvb_get_uint8(ptr noundef %5, i32 noundef %6)
  %12 = zext i8 %11 to i32
  %13 = lshr i32 %12, 6
  %14 = load i8, ptr @fru_langcode_is_english, align 1, !range !6
  %15 = trunc nuw i8 %14 to i1
  %16 = select i1 %15, ptr @ipmi_add_typelen.fru_eng, ptr @ipmi_add_typelen.fru_noneng
  %17 = zext nneg i32 %13 to i64
  %18 = getelementptr ptr, ptr %16, i64 %17
  %19 = getelementptr [4 x ptr], ptr @ipmi_add_typelen.ipmi, i64 0, i64 %17
  %.047 = select i1 %7, ptr @.str, ptr @.str.1
  %.046 = select i1 %7, i32 63, i32 31
  %.0.in = select i1 %7, ptr %18, ptr %19
  %.0 = load ptr, ptr %.0.in, align 8
  %20 = and i32 %.046, %12
  %21 = load ptr, ptr %.0, align 8
  %22 = add i32 %6, 1
  call void %21(ptr noundef nonnull %9, ptr noundef nonnull %10, ptr noundef %5, i32 noundef %22, i32 noundef %20, i1 noundef zeroext %7)
  %23 = getelementptr inbounds nuw i8, ptr %0, i64 408
  %24 = load ptr, ptr %23, align 8
  %25 = load i32, ptr %9, align 4
  %26 = add i32 %25, 1
  %27 = zext i32 %26 to i64
  %28 = call noalias ptr @wmem_alloc(ptr noundef %24, i64 noundef %27) #14
  %29 = getelementptr inbounds nuw i8, ptr %.0, i64 8
  %30 = load ptr, ptr %29, align 8
  %31 = load i32, ptr %9, align 4
  call void %30(ptr noundef %28, ptr noundef %5, i32 noundef %22, i32 noundef %31)
  %32 = load i32, ptr %9, align 4
  %33 = zext i32 %32 to i64
  %34 = getelementptr i8, ptr %28, i64 %33
  store i8 0, ptr %34, align 1
  %35 = load i32, ptr @ett_typelen, align 4
  %36 = call ptr @proto_registrar_get_nth(i32 noundef %2)
  %37 = load ptr, ptr %36, align 8
  %38 = getelementptr inbounds nuw i8, ptr %.0, i64 16
  %39 = load ptr, ptr %38, align 8
  %40 = call ptr (ptr, ptr, i32, i32, i32, ptr, ptr, ...) @proto_tree_add_subtree_format(ptr noundef %1, ptr noundef %5, i32 noundef %6, i32 noundef 1, i32 noundef %35, ptr noundef null, ptr noundef nonnull @.str.2, ptr noundef %37, ptr noundef %39, i32 noundef %20, ptr noundef nonnull %.047)
  %41 = load ptr, ptr %38, align 8
  %42 = call ptr (ptr, i32, ptr, i32, i32, i32, ptr, ...) @proto_tree_add_uint_format_value(ptr noundef %40, i32 noundef %3, ptr noundef %5, i32 noundef %6, i32 noundef 1, i32 noundef %13, ptr noundef nonnull @.str.3, ptr noundef %41, i32 noundef %13)
  %43 = call ptr (ptr, i32, ptr, i32, i32, i32, ptr, ...) @proto_tree_add_uint_format_value(ptr noundef %40, i32 noundef %4, ptr noundef %5, i32 noundef %6, i32 noundef 1, i32 noundef %20, ptr noundef nonnull @.str.4, i32 noundef %20, ptr noundef nonnull %.047)
  %44 = load i32, ptr %10, align 4
  %45 = load ptr, ptr %38, align 8
  %46 = call ptr (ptr, i32, ptr, i32, i32, ptr, ptr, ...) @proto_tree_add_string_format_value(ptr noundef %1, i32 noundef %2, ptr noundef %5, i32 noundef %22, i32 noundef %44, ptr noundef %28, ptr noundef nonnull @.str.5, ptr noundef %45, ptr noundef %28)
  call void @llvm.lifetime.end.p0(i64 4, ptr nonnull %10) #15
  call void @llvm.lifetime.end.p0(i64 4, ptr nonnull %9) #15
  ret void
}